target datalayout = "e-m:e-p270:32:32-p271:32:32-p272:64:64-i64:64-i128:128-f80:128-n8:16:32:64-S128"
target triple = "x86_64-pc-linux-gnu"

%"class.LightGBM::SparseBinIterator" = type <{ %"class.LightGBM::BinIterator", ptr, i32, i32, i8, i8, i8, i8, [4 x i8] }>
%"class.LightGBM::BinIterator" = type { ptr }

; Function Attrs: mustprogress nounwind uwtable
define linkonce_odr void @_ZN8LightGBM11BinIteratorD2Ev(ptr noundef nonnull align 8 dereferenceable(8) %0) unnamed_addr #0 comdat align 2 {
  %2 = alloca ptr, align 8
  store ptr %0, ptr %2, align 8, !tbaa !58
  ret void
}

; Function Attrs: inlinehint mustprogress nounwind uwtable
define linkonce_odr void @_ZN8LightGBM11BinIteratorC2Ev(ptr noundef nonnull align 8 dereferenceable(8) %0) unnamed_addr #6 comdat align 2 {
  %2 = alloca ptr, align 8
  store ptr %0, ptr %2, align 8, !tbaa !58
  %3 = load ptr, ptr %2, align 8
  store ptr getelementptr inbounds inrange(-16, 40) ({ [7 x ptr] }, ptr @_ZTVN8LightGBM11BinIteratorE, i32 0, i32 0, i32 2), ptr %3, align 8, !tbaa !215
  ret void
}

; Function Attrs: mustprogress uwtable
define linkonce_odr void @_ZN8LightGBM17SparseBinIteratorIhEC2EPKNS_9SparseBinIhEEi(ptr noundef nonnull align 8 dereferenceable(28) %0, ptr noundef %1, i32 noundef %2) unnamed_addr #1 comdat align 2 personality ptr @__gxx_personality_v0 {
  %4 = alloca ptr, align 8
  %5 = alloca ptr, align 8
  %6 = alloca i32, align 4
  %7 = alloca ptr, align 8
  %8 = alloca i32, align 4
  store ptr %0, ptr %4, align 8, !tbaa !128
  store ptr %1, ptr %5, align 8, !tbaa !93
  store i32 %2, ptr %6, align 4, !tbaa !11
  %9 = load ptr, ptr %4, align 8
  call void @_ZN8LightGBM11BinIteratorC2Ev(ptr noundef nonnull align 8 dereferenceable(8) %9) #5
  store ptr getelementptr inbounds inrange(-16, 40) ({ [7 x ptr] }, ptr @_ZTVN8LightGBM17SparseBinIteratorIhEE, i32 0, i32 0, i32 2), ptr %9, align 8, !tbaa !215
  %10 = getelementptr inbounds nuw %"class.LightGBM::SparseBinIterator", ptr %9, i32 0, i32 1
  %11 = load ptr, ptr %5, align 8, !tbaa !93
  store ptr %11, ptr %10, align 8, !tbaa !654
  %12 = load i32, ptr %6, align 4, !tbaa !11
  %13 = load ptr, ptr %9, align 8, !tbaa !215
  %14 = getelementptr inbounds ptr, ptr %13, i64 2
  %15 = load ptr, ptr %14, align 8
  invoke void %15(ptr noundef nonnull align 8 dereferenceable(28) %9, i32 noundef %12)
          to label %16 unwind label %17

16:                                               ; preds = %3
  ret void

17:                                               ; preds = %3
  %18 = landingpad { ptr, i32 }
          cleanup
  %19 = extractvalue { ptr, i32 } %18, 0
  store ptr %19, ptr %7, align 8
  %20 = extractvalue { ptr, i32 } %18, 1
  store i32 %20, ptr %8, align 4
  call void @_ZN8LightGBM11BinIteratorD2Ev(ptr noundef nonnull align 8 dereferenceable(8) %9) #5
  br label %21

21:                                               ; preds = %17
  %22 = load ptr, ptr %7, align 8
  %23 = load i32, ptr %8, align 4
  %24 = insertvalue { ptr, i32 } poison, ptr %22, 0
  %25 = insertvalue { ptr, i32 } %24, i32 %23, 1
  resume { ptr, i32 } %25
}

; Function Attrs: mustprogress uwtable
define noundef ptr @_ZNK8LightGBM9SparseBinIhE14GetColWiseDataEPhPbPPNS_11BinIteratorE(ptr noundef nonnull align 8 dereferenceable(124) %0, ptr noundef %1, ptr noundef %2, ptr noundef %3) unnamed_addr #1 align 2 personality ptr @__gxx_personality_v0 {
  %5 = alloca ptr, align 8
  %6 = alloca ptr, align 8
  %7 = alloca ptr, align 8
  %8 = alloca ptr, align 8
  %9 = alloca ptr, align 8
  %10 = alloca i32, align 4
  store ptr %0, ptr %5, align 8, !tbaa !93
  store ptr %1, ptr %6, align 8, !tbaa !23
  store ptr %2, ptr %7, align 8, !tbaa !51
  store ptr %3, ptr %8, align 8, !tbaa !55
  %11 = load ptr, ptr %5, align 8
  %12 = load ptr, ptr %7, align 8, !tbaa !51
  store i8 1, ptr %12, align 1, !tbaa !46
  %13 = load ptr, ptr %6, align 8, !tbaa !23
  store i8 8, ptr %13, align 1, !tbaa !13
  %14 = call noalias noundef nonnull ptr @_Znwm(i64 noundef 32) #29
  invoke void @_ZN8LightGBM17SparseBinIteratorIhEC2EPKNS_9SparseBinIhEEi(ptr noundef nonnull align 8 dereferenceable(28) %14, ptr noundef %11, i32 noundef 0)
          to label %15 unwind label %17

15:                                               ; preds = %4
  %16 = load ptr, ptr %8, align 8, !tbaa !55
  store ptr %14, ptr %16, align 8, !tbaa !58
  ret ptr null

17:                                               ; preds = %4
  %18 = landingpad { ptr, i32 }
          cleanup
  %19 = extractvalue { ptr, i32 } %18, 0
  store ptr %19, ptr %9, align 8
  %20 = extractvalue { ptr, i32 } %18, 1
  store i32 %20, ptr %10, align 4
  call void @_ZdlPv(ptr noundef %14) #28
  br label %21

21:                                               ; preds = %17
  %22 = load ptr, ptr %9, align 8
  %23 = load i32, ptr %10, align 4
  %24 = insertvalue { ptr, i32 } poison, ptr %22, 0
  %25 = insertvalue { ptr, i32 } %24, i32 %23, 1
  resume { ptr, i32 } %25
}